target datalayout = "e-m:e-p270:32:32-p271:32:32-p272:64:64-i64:64-i128:128-f80:128-n8:16:32:64-S128"
target triple = "x86_64-pc-linux-gnu"

%struct.ieee802154_packet = type { i32, i32, i32, i32, i8, i8, i8, i8, i8, i8, i8, i8, i8, i8, i8, i8, i16, i16, i16, i64, i16, i64, i32, i32, i8, i32, i8, i64, %union.anon, i8, i8, ptr }
%union.anon = type { i64 }
%struct._GByteArray = type { ptr, i32 }

@thread_auto_acq_seq_ctr = internal global i8 1, align 1
@thread_seq_ctr_acqd = internal global i8 0, align 1
@thread_seq_ctr_bytes = internal global [4 x i8] zeroinitializer, align 1

; Function Attrs: alwaysinline nounwind
define internal ptr @memcpy.inline(ptr noalias %0, ptr noalias %1, i64 %2) #4 {
  %4 = alloca ptr, align 8
  %5 = alloca ptr, align 8
  %6 = alloca i64, align 8
  store ptr %0, ptr %4, align 8
  store ptr %1, ptr %5, align 8
  store i64 %2, ptr %6, align 8
  %7 = load ptr, ptr %4, align 8
  %8 = load ptr, ptr %5, align 8
  %9 = load i64, ptr %6, align 8
  %10 = load ptr, ptr %4, align 8
  %11 = call i64 @llvm.objectsize.i64.p0(ptr %10, i1 false, i1 true, i1 true)
  %12 = call ptr @__memcpy_chk(ptr noundef %7, ptr noundef %8, i64 noundef %9, i64 noundef %11) #9
  ret ptr %12
}

; Function Attrs: null_pointer_is_valid sspstrong uwtable
define internal i32 @set_thread_mle_key(ptr noundef %0, ptr noundef %1, ptr noundef %2, ptr noundef %3) #0 {
  %5 = alloca i32, align 4
  %6 = alloca ptr, align 8
  %7 = alloca ptr, align 8
  %8 = alloca ptr, align 8
  %9 = alloca ptr, align 8
  %10 = alloca ptr, align 8
  %11 = alloca i32, align 4
  store ptr %0, ptr %6, align 8
  store ptr %1, ptr %7, align 8
  store ptr %2, ptr %8, align 8
  store ptr %3, ptr %9, align 8
  call void @llvm.lifetime.start.p0(i64 8, ptr %10) #9
  store ptr null, ptr %10, align 8
  %12 = load ptr, ptr %6, align 8
  %13 = getelementptr inbounds nuw %struct.ieee802154_packet, ptr %12, i32 0, i32 23
  %14 = load i32, ptr %13, align 4
  %15 = icmp eq i32 %14, 1
  br i1 %15, label %16, label %21

16:                                               ; preds = %4
  %17 = load ptr, ptr %6, align 8
  %18 = getelementptr inbounds nuw %struct.ieee802154_packet, ptr %17, i32 0, i32 29
  %19 = load i8, ptr %18, align 8
  %20 = call ptr @set_thread_seq_ctr_from_key_index(i8 noundef zeroext %19)
  store ptr %20, ptr %10, align 8
  br label %81

21:                                               ; preds = %4
  %22 = load ptr, ptr %6, align 8
  %23 = getelementptr inbounds nuw %struct.ieee802154_packet, ptr %22, i32 0, i32 23
  %24 = load i32, ptr %23, align 4
  %25 = icmp eq i32 %24, 2
  br i1 %25, label %26, label %80

26:                                               ; preds = %21
  %27 = call ptr @g_byte_array_new()
  store ptr %27, ptr %10, align 8
  %28 = load ptr, ptr %10, align 8
  %29 = call ptr @g_byte_array_set_size(ptr noundef %28, i32 noundef 4)
  store ptr %29, ptr %10, align 8
  %30 = load ptr, ptr %6, align 8
  %31 = getelementptr inbounds nuw %struct.ieee802154_packet, ptr %30, i32 0, i32 28
  %32 = load i32, ptr %31, align 8
  %33 = lshr i32 %32, 24
  %34 = and i32 %33, 255
  %35 = trunc i32 %34 to i8
  %36 = load ptr, ptr %10, align 8
  %37 = getelementptr inbounds nuw %struct._GByteArray, ptr %36, i32 0, i32 0
  %38 = load ptr, ptr %37, align 8
  %39 = getelementptr i8, ptr %38, i64 0
  store i8 %35, ptr %39, align 1
  %40 = load ptr, ptr %6, align 8
  %41 = getelementptr inbounds nuw %struct.ieee802154_packet, ptr %40, i32 0, i32 28
  %42 = load i32, ptr %41, align 8
  %43 = lshr i32 %42, 16
  %44 = and i32 %43, 255
  %45 = trunc i32 %44 to i8
  %46 = load ptr, ptr %10, align 8
  %47 = getelementptr inbounds nuw %struct._GByteArray, ptr %46, i32 0, i32 0
  %48 = load ptr, ptr %47, align 8
  %49 = getelementptr i8, ptr %48, i64 1
  store i8 %45, ptr %49, align 1
  %50 = load ptr, ptr %6, align 8
  %51 = getelementptr inbounds nuw %struct.ieee802154_packet, ptr %50, i32 0, i32 28
  %52 = load i32, ptr %51, align 8
  %53 = lshr i32 %52, 8
  %54 = and i32 %53, 255
  %55 = trunc i32 %54 to i8
  %56 = load ptr, ptr %10, align 8
  %57 = getelementptr inbounds nuw %struct._GByteArray, ptr %56, i32 0, i32 0
  %58 = load ptr, ptr %57, align 8
  %59 = getelementptr i8, ptr %58, i64 2
  store i8 %55, ptr %59, align 1
  %60 = load ptr, ptr %6, align 8
  %61 = getelementptr inbounds nuw %struct.ieee802154_packet, ptr %60, i32 0, i32 28
  %62 = load i32, ptr %61, align 8
  %63 = and i32 %62, 255
  %64 = trunc i32 %63 to i8
  %65 = load ptr, ptr %10, align 8
  %66 = getelementptr inbounds nuw %struct._GByteArray, ptr %65, i32 0, i32 0
  %67 = load ptr, ptr %66, align 8
  %68 = getelementptr i8, ptr %67, i64 3
  store i8 %64, ptr %68, align 1
  %69 = load i8, ptr @thread_auto_acq_seq_ctr, align 1, !range !21, !noundef !22
  %70 = trunc i8 %69 to i1
  br i1 %70, label %71, label %79

71:                                               ; preds = %26
  %72 = load i8, ptr @thread_seq_ctr_acqd, align 1, !range !21, !noundef !22
  %73 = trunc i8 %72 to i1
  br i1 %73, label %79, label %74

74:                                               ; preds = %71
  %75 = load ptr, ptr %10, align 8
  %76 = getelementptr inbounds nuw %struct._GByteArray, ptr %75, i32 0, i32 0
  %77 = load ptr, ptr %76, align 8
  %78 = call ptr @memcpy.inline(ptr noundef @thread_seq_ctr_bytes, ptr noundef %77, i64 noundef 4) #9
  store i8 1, ptr @thread_seq_ctr_acqd, align 1
  br label %79

79:                                               ; preds = %74, %71, %26
  br label %80

80:                                               ; preds = %79, %21
  br label %81

81:                                               ; preds = %80, %16
  %82 = load ptr, ptr %10, align 8
  %83 = icmp ne ptr %82, null
  br i1 %83, label %84, label %107

84:                                               ; preds = %81
  %85 = load ptr, ptr %10, align 8
  %86 = load ptr, ptr %6, align 8
  %87 = getelementptr inbounds nuw %struct.ieee802154_packet, ptr %86, i32 0, i32 17
  %88 = load i16, ptr %87, align 2
  %89 = load ptr, ptr %9, align 8
  %90 = load ptr, ptr %7, align 8
  call void @create_thread_temp_keys(ptr noundef %85, i16 noundef zeroext %88, ptr noundef %89, ptr noundef null, ptr noundef %90)
  %91 = load ptr, ptr %10, align 8
  %92 = getelementptr inbounds nuw %struct._GByteArray, ptr %91, i32 0, i32 0
  %93 = load ptr, ptr %92, align 8
  %94 = getelementptr i8, ptr %93, i64 3
  %95 = load i8, ptr %94, align 1
  %96 = zext i8 %95 to i32
  %97 = xor i32 %96, 128
  %98 = trunc i32 %97 to i8
  store i8 %98, ptr %94, align 1
  %99 = load ptr, ptr %10, align 8
  %100 = load ptr, ptr %6, align 8
  %101 = getelementptr inbounds nuw %struct.ieee802154_packet, ptr %100, i32 0, i32 17
  %102 = load i16, ptr %101, align 2
  %103 = load ptr, ptr %9, align 8
  %104 = load ptr, ptr %8, align 8
  call void @create_thread_temp_keys(ptr noundef %99, i16 noundef zeroext %102, ptr noundef %103, ptr noundef null, ptr noundef %104)
  %105 = load ptr, ptr %10, align 8
  %106 = call ptr @g_byte_array_free(ptr noundef %105, i32 noundef 1)
  store i32 2, ptr %5, align 4
  store i32 1, ptr %11, align 4
  br label %108

107:                                              ; preds = %81
  store i32 0, ptr %5, align 4
  store i32 1, ptr %11, align 4
  br label %108

108:                                              ; preds = %107, %84
  call void @llvm.lifetime.end.p0(i64 8, ptr %10) #9
  %109 = load i32, ptr %5, align 4
  ret i32 %109
}