; Function Attrs: null_pointer_is_valid sspstrong uwtable
define internal range(i32 0, 3) i32 @set_thread_mle_key(ptr noundef readonly captures(none) %0, ptr noundef %1, ptr noundef %2, ptr noundef readonly captures(none) %3) #0 {
  %5 = getelementptr inbounds nuw i8, ptr %0, i64 68
  %6 = load i32, ptr %5, align 4
  switch i32 %6, label %.thread [
    i32 1, label %7
    i32 2, label %11
  ]

7:                                                ; preds = %4
  %8 = getelementptr inbounds nuw i8, ptr %0, i64 104
  %9 = load i8, ptr %8, align 8
  %10 = tail call fastcc ptr @set_thread_seq_ctr_from_key_index(i8 noundef zeroext %9)
  br label %39

11:                                               ; preds = %4
  %12 = tail call ptr @g_byte_array_new()
  %13 = tail call ptr @g_byte_array_set_size(ptr noundef %12, i32 noundef 4)
  %14 = getelementptr inbounds nuw i8, ptr %0, i64 96
  %15 = load i32, ptr %14, align 8
  %16 = lshr i32 %15, 24
  %17 = trunc nuw i32 %16 to i8
  %18 = load ptr, ptr %13, align 8
  store i8 %17, ptr %18, align 1
  %19 = load i32, ptr %14, align 8
  %20 = lshr i32 %19, 16
  %21 = trunc i32 %20 to i8
  %22 = load ptr, ptr %13, align 8
  %23 = getelementptr i8, ptr %22, i64 1
  store i8 %21, ptr %23, align 1
  %24 = load i32, ptr %14, align 8
  %25 = lshr i32 %24, 8
  %26 = trunc i32 %25 to i8
  %27 = load ptr, ptr %13, align 8
  %28 = getelementptr i8, ptr %27, i64 2
  store i8 %26, ptr %28, align 1
  %29 = load i32, ptr %14, align 8
  %30 = trunc i32 %29 to i8
  %31 = load ptr, ptr %13, align 8
  %32 = getelementptr i8, ptr %31, i64 3
  store i8 %30, ptr %32, align 1
  %33 = load i8, ptr @thread_auto_acq_seq_ctr, align 1, !range !25, !noundef !26
  %34 = trunc nuw i8 %33 to i1
  br i1 %34, label %35, label %39

35:                                               ; preds = %11
  %.b26 = load i1, ptr @thread_seq_ctr_acqd, align 1
  br i1 %.b26, label %39, label %36

36:                                               ; preds = %35
  %37 = load ptr, ptr %13, align 8
  %38 = load i32, ptr %37, align 1
  store i32 %38, ptr @thread_seq_ctr_bytes, align 4
  store i1 true, ptr @thread_seq_ctr_acqd, align 1
  br label %39

39:                                               ; preds = %36, %35, %11, %7
  %.0 = phi ptr [ %10, %7 ], [ %13, %35 ], [ %13, %36 ], [ %13, %11 ]
  %.not = icmp eq ptr %.0, null
  br i1 %.not, label %.thread, label %40

40:                                               ; preds = %39
  %41 = getelementptr inbounds nuw i8, ptr %0, i64 30
  %42 = load i16, ptr %41, align 2
  tail call fastcc void @create_thread_temp_keys(ptr noundef %.0, i16 noundef zeroext %42, ptr noundef %3, ptr noundef null, ptr noundef %1)
  %43 = load ptr, ptr %.0, align 8
  %44 = getelementptr i8, ptr %43, i64 3
  %45 = load i8, ptr %44, align 1
  %46 = xor i8 %45, -128
  store i8 %46, ptr %44, align 1
  %47 = load i16, ptr %41, align 2
  tail call fastcc void @create_thread_temp_keys(ptr noundef %.0, i16 noundef zeroext %47, ptr noundef %3, ptr noundef null, ptr noundef %2)
  %48 = tail call ptr @g_byte_array_free(ptr noundef nonnull %.0, i32 noundef 1)
  br label %.thread

.thread:                                          ; preds = %4, %39, %40
  %.024 = phi i32 [ 2, %40 ], [ 0, %39 ], [ 0, %4 ]
  ret i32 %.024
}